target datalayout = "e-m:e-p270:32:32-p271:32:32-p272:64:64-i64:64-i128:128-f80:128-n8:16:32:64-S128"
target triple = "x86_64-pc-linux-gnu"

%"class.icu_77::RBBIStateDescriptor" = type { i8, i32, i32, ptr, i32, ptr, ptr }

; Function Attrs: inlinehint mustprogress nounwind uwtable
define internal noundef signext i8 @_ZL9U_FAILURE10UErrorCode(i32 noundef %0) #1 {
  %2 = alloca i32, align 4
  store i32 %0, ptr %2, align 4, !tbaa !24
  %3 = load i32, ptr %2, align 4, !tbaa !24
  %4 = icmp sgt i32 %3, 0
  %5 = zext i1 %4 to i8
  ret i8 %5
}

; Function Attrs: mustprogress uwtable
define void @_ZN6icu_7719RBBIStateDescriptorC2EiP10UErrorCode(ptr noundef nonnull align 8 dereferenceable(48) %0, i32 noundef %1, ptr noundef %2) unnamed_addr #0 align 2 personality ptr @__gxx_personality_v0 {
  %4 = alloca ptr, align 8
  %5 = alloca i32, align 4
  %6 = alloca ptr, align 8
  %7 = alloca i1, align 1
  %8 = alloca ptr, align 8
  %9 = alloca i32, align 4
  store ptr %0, ptr %4, align 8, !tbaa !70
  store i32 %1, ptr %5, align 4, !tbaa !26
  store ptr %2, ptr %6, align 8, !tbaa !13
  %10 = load ptr, ptr %4, align 8
  %11 = getelementptr inbounds nuw %"class.icu_77::RBBIStateDescriptor", ptr %10, i32 0, i32 0
  store i8 0, ptr %11, align 8, !tbaa !74
  %12 = getelementptr inbounds nuw %"class.icu_77::RBBIStateDescriptor", ptr %10, i32 0, i32 1
  store i32 0, ptr %12, align 4, !tbaa !90
  %13 = getelementptr inbounds nuw %"class.icu_77::RBBIStateDescriptor", ptr %10, i32 0, i32 2
  store i32 0, ptr %13, align 8, !tbaa !93
  %14 = getelementptr inbounds nuw %"class.icu_77::RBBIStateDescriptor", ptr %10, i32 0, i32 4
  store i32 0, ptr %14, align 8, !tbaa !100
  %15 = getelementptr inbounds nuw %"class.icu_77::RBBIStateDescriptor", ptr %10, i32 0, i32 3
  store ptr null, ptr %15, align 8, !tbaa !99
  %16 = getelementptr inbounds nuw %"class.icu_77::RBBIStateDescriptor", ptr %10, i32 0, i32 5
  store ptr null, ptr %16, align 8, !tbaa !72
  %17 = getelementptr inbounds nuw %"class.icu_77::RBBIStateDescriptor", ptr %10, i32 0, i32 6
  store ptr null, ptr %17, align 8, !tbaa !79
  %18 = call noundef ptr @_ZN6icu_777UMemorynwEm(i64 noundef 32) #11
  %19 = icmp eq ptr %18, null
  store i1 false, ptr %7, align 1
  br i1 %19, label %25, label %20

20:                                               ; preds = %3
  store i1 true, ptr %7, align 1
  %21 = load i32, ptr %5, align 4, !tbaa !26
  %22 = add nsw i32 %21, 1
  %23 = load ptr, ptr %6, align 8, !tbaa !13
  invoke void @_ZN6icu_779UVector32C1EiR10UErrorCode(ptr noundef nonnull align 8 dereferenceable(32) %18, i32 noundef %22, ptr noundef nonnull align 4 dereferenceable(4) %23)
          to label %24 unwind label %33

24:                                               ; preds = %20
  br label %25

25:                                               ; preds = %24, %3
  %26 = phi ptr [ %18, %24 ], [ null, %3 ]
  %27 = getelementptr inbounds nuw %"class.icu_77::RBBIStateDescriptor", ptr %10, i32 0, i32 6
  store ptr %26, ptr %27, align 8, !tbaa !79
  %28 = load ptr, ptr %6, align 8, !tbaa !13
  %29 = load i32, ptr %28, align 4, !tbaa !24
  %30 = call noundef signext i8 @_ZL9U_FAILURE10UErrorCode(i32 noundef %29)
  %31 = icmp ne i8 %30, 0
  br i1 %31, label %32, label %40

32:                                               ; preds = %25
  br label %51

33:                                               ; preds = %20
  %34 = landingpad { ptr, i32 }
          cleanup
  %35 = extractvalue { ptr, i32 } %34, 0
  store ptr %35, ptr %8, align 8
  %36 = extractvalue { ptr, i32 } %34, 1
  store i32 %36, ptr %9, align 4
  %37 = load i1, ptr %7, align 1
  br i1 %37, label %38, label %39

38:                                               ; preds = %33
  call void @_ZN6icu_777UMemorydlEPv(ptr noundef %18) #11
  br label %39

39:                                               ; preds = %38, %33
  br label %52

40:                                               ; preds = %25
  %41 = getelementptr inbounds nuw %"class.icu_77::RBBIStateDescriptor", ptr %10, i32 0, i32 6
  %42 = load ptr, ptr %41, align 8, !tbaa !79
  %43 = icmp eq ptr %42, null
  br i1 %43, label %44, label %46

44:                                               ; preds = %40
  %45 = load ptr, ptr %6, align 8, !tbaa !13
  store i32 7, ptr %45, align 4, !tbaa !24
  br label %51

46:                                               ; preds = %40
  %47 = getelementptr inbounds nuw %"class.icu_77::RBBIStateDescriptor", ptr %10, i32 0, i32 6
  %48 = load ptr, ptr %47, align 8, !tbaa !79
  %49 = load i32, ptr %5, align 4, !tbaa !26
  %50 = add nsw i32 %49, 1
  call void @_ZN6icu_779UVector327setSizeEi(ptr noundef nonnull align 8 dereferenceable(32) %48, i32 noundef %50)
  br label %51

51:                                               ; preds = %46, %44, %32
  ret void

52:                                               ; preds = %39
  %53 = load ptr, ptr %8, align 8
  %54 = load i32, ptr %9, align 4
  %55 = insertvalue { ptr, i32 } poison, ptr %53, 0
  %56 = insertvalue { ptr, i32 } %55, i32 %54, 1
  resume { ptr, i32 } %56
}