; Function Attrs: mustprogress uwtable
define void @_ZN6icu_7719RBBIStateDescriptorC2EiP10UErrorCode(ptr noundef nonnull writeonly align 8 captures(none) dereferenceable(48) initializes((0, 1), (4, 12), (16, 28), (32, 48)) %0, i32 noundef %1, ptr noundef %2) unnamed_addr #0 align 2 personality ptr @__gxx_personality_v0 {
  store i8 0, ptr %0, align 8, !tbaa !67
  %4 = getelementptr inbounds nuw i8, ptr %0, i64 4
  store i32 0, ptr %4, align 4, !tbaa !81
  %5 = getelementptr inbounds nuw i8, ptr %0, i64 8
  store i32 0, ptr %5, align 8, !tbaa !84
  %6 = getelementptr inbounds nuw i8, ptr %0, i64 24
  store i32 0, ptr %6, align 8, !tbaa !91
  %7 = getelementptr inbounds nuw i8, ptr %0, i64 16
  store ptr null, ptr %7, align 8, !tbaa !90
  %8 = getelementptr inbounds nuw i8, ptr %0, i64 32
  %9 = getelementptr inbounds nuw i8, ptr %0, i64 40
  tail call void @llvm.memset.p0.i64(ptr noundef nonnull align 8 dereferenceable(16) %8, i8 0, i64 16, i1 false)
  %10 = tail call noundef ptr @_ZN6icu_777UMemorynwEm(i64 noundef 32) #13
  %11 = icmp eq ptr %10, null
  br i1 %11, label %.thread, label %12

12:                                               ; preds = %3
  %13 = add nsw i32 %1, 1
  invoke void @_ZN6icu_779UVector32C1EiR10UErrorCode(ptr noundef nonnull align 8 dereferenceable(32) %10, i32 noundef %13, ptr noundef nonnull align 4 dereferenceable(4) %2)
          to label %14 unwind label %19

14:                                               ; preds = %12
  store ptr %10, ptr %9, align 8, !tbaa !68
  %15 = load i32, ptr %2, align 4, !tbaa !17
  %16 = icmp slt i32 %15, 1
  br i1 %16, label %22, label %23

.thread:                                          ; preds = %3
  store ptr null, ptr %9, align 8, !tbaa !68
  %17 = load i32, ptr %2, align 4, !tbaa !17
  %18 = icmp slt i32 %17, 1
  br i1 %18, label %21, label %23

19:                                               ; preds = %12
  %20 = landingpad { ptr, i32 }
          cleanup
  tail call void @_ZN6icu_777UMemorydlEPv(ptr noundef nonnull %10) #13
  resume { ptr, i32 } %20

21:                                               ; preds = %.thread
  store i32 7, ptr %2, align 4, !tbaa !17
  br label %23

22:                                               ; preds = %14
  tail call void @_ZN6icu_779UVector327setSizeEi(ptr noundef nonnull align 8 dereferenceable(32) %10, i32 noundef %13)
  br label %23

23:                                               ; preds = %.thread, %14, %22, %21
  ret void
}